; ModuleID = '55/338.c'
source_filename = "55/338.c"
target datalayout = "e-m:e-p270:32:32-p271:32:32-p272:64:64-i64:64-f80:128-n8:16:32:64-S128"
target triple = "x86_64-pc-linux-gnu"

@.str = private unnamed_addr constant [3 x i8] c"%d\00", align 1
@.str.1 = private unnamed_addr constant [3 x i8] c"%s\00", align 1
@.str.2 = private unnamed_addr constant [2 x i8] c"0\00", align 1
@.str.3 = private unnamed_addr constant [3 x i8] c"%c\00", align 1

; Function Attrs: noinline nounwind uwtable
define dso_local void @main() #0 {
  %1 = alloca i32, align 4
  %2 = alloca i32, align 4
  %3 = alloca [100 x i8], align 16
  %4 = alloca i32, align 4
  %5 = alloca i32, align 4
  %6 = alloca [100 x i32], align 16
  %7 = alloca i32, align 4
  %8 = alloca i32, align 4
  %9 = call i32 (i8*, ...) @__isoc99_scanf(i8* getelementptr inbounds ([3 x i8], [3 x i8]* @.str, i64 0, i64 0), i32* %1)
  %10 = getelementptr inbounds [100 x i8], [100 x i8]* %3, i64 0, i64 0
  %11 = call i32 (i8*, ...) @__isoc99_scanf(i8* getelementptr inbounds ([3 x i8], [3 x i8]* @.str.1, i64 0, i64 0), i8* %10)
  %12 = call i32 (i8*, ...) @__isoc99_scanf(i8* getelementptr inbounds ([3 x i8], [3 x i8]* @.str, i64 0, i64 0), i32* %2)
  store i32 0, i32* %5, align 4
  store i32 0, i32* %4, align 4
  br label %13

13:                                               ; preds = %99, %0
  %14 = load i32, i32* %4, align 4
  %15 = sext i32 %14 to i64
  %16 = getelementptr inbounds [100 x i8], [100 x i8]* %3, i64 0, i64 0
  %17 = call i64 @strlen(i8* %16) #3
  %18 = icmp ult i64 %15, %17
  br i1 %18, label %19, label %102

19:                                               ; preds = %13
  %20 = load i32, i32* %4, align 4
  %21 = sext i32 %20 to i64
  %22 = getelementptr inbounds [100 x i8], [100 x i8]* %3, i64 0, i64 %21
  %23 = load i8, i8* %22, align 1
  %24 = sext i8 %23 to i32
  %25 = icmp sge i32 %24, 48
  br i1 %25, label %26, label %44

26:                                               ; preds = %19
  %27 = load i32, i32* %4, align 4
  %28 = sext i32 %27 to i64
  %29 = getelementptr inbounds [100 x i8], [100 x i8]* %3, i64 0, i64 %28
  %30 = load i8, i8* %29, align 1
  %31 = sext i8 %30 to i32
  %32 = icmp sle i32 %31, 57
  br i1 %32, label %33, label %44

33:                                               ; preds = %26
  %34 = load i32, i32* %5, align 4
  %35 = load i32, i32* %1, align 4
  %36 = mul nsw i32 %34, %35
  %37 = load i32, i32* %4, align 4
  %38 = sext i32 %37 to i64
  %39 = getelementptr inbounds [100 x i8], [100 x i8]* %3, i64 0, i64 %38
  %40 = load i8, i8* %39, align 1
  %41 = sext i8 %40 to i32
  %42 = add nsw i32 %36, %41
  %43 = sub nsw i32 %42, 48
  store i32 %43, i32* %5, align 4
  br label %98

44:                                               ; preds = %26, %19
  %45 = load i32, i32* %4, align 4
  %46 = sext i32 %45 to i64
  %47 = getelementptr inbounds [100 x i8], [100 x i8]* %3, i64 0, i64 %46
  %48 = load i8, i8* %47, align 1
  %49 = sext i8 %48 to i32
  %50 = icmp sge i32 %49, 65
  br i1 %50, label %51, label %70

51:                                               ; preds = %44
  %52 = load i32, i32* %4, align 4
  %53 = sext i32 %52 to i64
  %54 = getelementptr inbounds [100 x i8], [100 x i8]* %3, i64 0, i64 %53
  %55 = load i8, i8* %54, align 1
  %56 = sext i8 %55 to i32
  %57 = icmp sle i32 %56, 90
  br i1 %57, label %58, label %70

58:                                               ; preds = %51
  %59 = load i32, i32* %5, align 4
  %60 = load i32, i32* %1, align 4
  %61 = mul nsw i32 %59, %60
  %62 = load i32, i32* %4, align 4
  %63 = sext i32 %62 to i64
  %64 = getelementptr inbounds [100 x i8], [100 x i8]* %3, i64 0, i64 %63
  %65 = load i8, i8* %64, align 1
  %66 = sext i8 %65 to i32
  %67 = add nsw i32 %61, %66
  %68 = sub nsw i32 %67, 65
  %69 = add nsw i32 %68, 10
  store i32 %69, i32* %5, align 4
  br label %97

70:                                               ; preds = %51, %44
  %71 = load i32, i32* %4, align 4
  %72 = sext i32 %71 to i64
  %73 = getelementptr inbounds [100 x i8], [100 x i8]* %3, i64 0, i64 %72
  %74 = load i8, i8* %73, align 1
  %75 = sext i8 %74 to i32
  %76 = icmp sge i32 %75, 97
  br i1 %76, label %77, label %96

77:                                               ; preds = %70
  %78 = load i32, i32* %4, align 4
  %79 = sext i32 %78 to i64
  %80 = getelementptr inbounds [100 x i8], [100 x i8]* %3, i64 0, i64 %79
  %81 = load i8, i8* %80, align 1
  %82 = sext i8 %81 to i32
  %83 = icmp sle i32 %82, 122
  br i1 %83, label %84, label %96

84:                                               ; preds = %77
  %85 = load i32, i32* %5, align 4
  %86 = load i32, i32* %1, align 4
  %87 = mul nsw i32 %85, %86
  %88 = load i32, i32* %4, align 4
  %89 = sext i32 %88 to i64
  %90 = getelementptr inbounds [100 x i8], [100 x i8]* %3, i64 0, i64 %89
  %91 = load i8, i8* %90, align 1
  %92 = sext i8 %91 to i32
  %93 = add nsw i32 %87, %92
  %94 = sub nsw i32 %93, 97
  %95 = add nsw i32 %94, 10
  store i32 %95, i32* %5, align 4
  br label %96

96:                                               ; preds = %84, %77, %70
  br label %97

97:                                               ; preds = %96, %58
  br label %98

98:                                               ; preds = %97, %33
  br label %99

99:                                               ; preds = %98
  %100 = load i32, i32* %4, align 4
  %101 = add nsw i32 %100, 1
  store i32 %101, i32* %4, align 4
  br label %13

102:                                              ; preds = %13
  store i32 0, i32* %7, align 4
  %103 = load i32, i32* %5, align 4
  %104 = icmp eq i32 %103, 0
  br i1 %104, label %105, label %107

105:                                              ; preds = %102
  %106 = call i32 (i8*, ...) @printf(i8* getelementptr inbounds ([2 x i8], [2 x i8]* @.str.2, i64 0, i64 0))
  br label %124

107:                                              ; preds = %102
  br label %108

108:                                              ; preds = %111, %107
  %109 = load i32, i32* %5, align 4
  %110 = icmp sgt i32 %109, 0
  br i1 %110, label %111, label %123

111:                                              ; preds = %108
  %112 = load i32, i32* %5, align 4
  %113 = load i32, i32* %2, align 4
  %114 = srem i32 %112, %113
  %115 = load i32, i32* %7, align 4
  %116 = sext i32 %115 to i64
  %117 = getelementptr inbounds [100 x i32], [100 x i32]* %6, i64 0, i64 %116
  store i32 %114, i32* %117, align 4
  %118 = load i32, i32* %7, align 4
  %119 = add nsw i32 %118, 1
  store i32 %119, i32* %7, align 4
  %120 = load i32, i32* %5, align 4
  %121 = load i32, i32* %2, align 4
  %122 = sdiv i32 %120, %121
  store i32 %122, i32* %5, align 4
  br label %108

123:                                              ; preds = %108
  br label %124

124:                                              ; preds = %123, %105
  %125 = load i32, i32* %7, align 4
  %126 = sub nsw i32 %125, 1
  store i32 %126, i32* %8, align 4
  br label %127

127:                                              ; preds = %156, %124
  %128 = load i32, i32* %8, align 4
  %129 = icmp sge i32 %128, 0
  br i1 %129, label %130, label %159

130:                                              ; preds = %127
  %131 = load i32, i32* %8, align 4
  %132 = sext i32 %131 to i64
  %133 = getelementptr inbounds [100 x i32], [100 x i32]* %6, i64 0, i64 %132
  %134 = load i32, i32* %133, align 4
  %135 = icmp slt i32 %134, 10
  br i1 %135, label %136, label %142

136:                                              ; preds = %130
  %137 = load i32, i32* %8, align 4
  %138 = sext i32 %137 to i64
  %139 = getelementptr inbounds [100 x i32], [100 x i32]* %6, i64 0, i64 %138
  %140 = load i32, i32* %139, align 4
  %141 = call i32 (i8*, ...) @printf(i8* getelementptr inbounds ([3 x i8], [3 x i8]* @.str, i64 0, i64 0), i32 %140)
  br label %142

142:                                              ; preds = %136, %130
  %143 = load i32, i32* %8, align 4
  %144 = sext i32 %143 to i64
  %145 = getelementptr inbounds [100 x i32], [100 x i32]* %6, i64 0, i64 %144
  %146 = load i32, i32* %145, align 4
  %147 = icmp sge i32 %146, 10
  br i1 %147, label %148, label %155

148:                                              ; preds = %142
  %149 = load i32, i32* %8, align 4
  %150 = sext i32 %149 to i64
  %151 = getelementptr inbounds [100 x i32], [100 x i32]* %6, i64 0, i64 %150
  %152 = load i32, i32* %151, align 4
  %153 = add nsw i32 %152, 55
  %154 = call i32 (i8*, ...) @printf(i8* getelementptr inbounds ([3 x i8], [3 x i8]* @.str.3, i64 0, i64 0), i32 %153)
  br label %155

155:                                              ; preds = %148, %142
  br label %156

156:                                              ; preds = %155
  %157 = load i32, i32* %8, align 4
  %158 = add nsw i32 %157, -1
  store i32 %158, i32* %8, align 4
  br label %127

159:                                              ; preds = %127
  ret void
}

declare dso_local i32 @__isoc99_scanf(i8*, ...) #1

; Function Attrs: nounwind readonly
declare dso_local i64 @strlen(i8*) #2

declare dso_local i32 @printf(i8*, ...) #1


!llvm.module.flags = !{!0}
!llvm.ident = !{!1}

!0 = !{i32 1, !"wchar_size", i32 4}
!1 = !{!"clang version 10.0.0-4ubuntu1 "}
